; Function Attrs: mustprogress nounwind uwtable
define internal void @"_ZN4absl12lts_2024072222internal_any_invocable22LocalManagerNontrivialIZN9grpc_core12experimental28DirectoryReloaderCrlProvider19UpdateAndStartTimerEvE3$_0EEvNS1_14FunctionToCallEPNS1_15TypeErasedStateES9_"(i1 noundef zeroext %0, ptr noundef captures(none) %1, ptr noundef writeonly captures(none) %2) #6 personality ptr @__gxx_personality_v0 {
  br i1 %0, label %8, label %.thread

.thread:                                          ; preds = %3
  %4 = load ptr, ptr %1, align 8, !tbaa !110
  store ptr %4, ptr %2, align 8, !tbaa !110
  %5 = getelementptr inbounds nuw i8, ptr %2, i64 8
  %6 = getelementptr inbounds nuw i8, ptr %1, i64 8
  %7 = load ptr, ptr %6, align 8, !tbaa !103
  store ptr %7, ptr %5, align 8, !tbaa !103
  tail call void @llvm.memset.p0.i64(ptr noundef nonnull align 8 dereferenceable(16) %1, i8 0, i64 16, i1 false)
  br label %"_ZZN9grpc_core12experimental28DirectoryReloaderCrlProvider19UpdateAndStartTimerEvEN3$_0D2Ev.exit"

8:                                                ; preds = %3
  %.phi.trans.insert = getelementptr i8, ptr %1, i64 8
  %.val.pre = load ptr, ptr %.phi.trans.insert, align 8, !tbaa !103
  %.not.i.i.i = icmp eq ptr %.val.pre, null
  br i1 %.not.i.i.i, label %"_ZZN9grpc_core12experimental28DirectoryReloaderCrlProvider19UpdateAndStartTimerEvEN3$_0D2Ev.exit", label %9

9:                                                ; preds = %8
  %10 = getelementptr inbounds nuw i8, ptr %.val.pre, i64 12
  %11 = load i8, ptr @__libc_single_threaded, align 1, !tbaa !25
  %.not.i.i.i.i = icmp eq i8 %11, 0
  br i1 %.not.i.i.i.i, label %15, label %12

12:                                               ; preds = %9
  %13 = load i32, ptr %10, align 4, !tbaa !88
  %14 = add nsw i32 %13, -1
  store i32 %14, ptr %10, align 4, !tbaa !88
  br label %_ZN9__gnu_cxx27__exchange_and_add_dispatchEPii.exit.i.i.i.i

15:                                               ; preds = %9
  %16 = atomicrmw volatile add ptr %10, i32 -1 acq_rel, align 4
  br label %_ZN9__gnu_cxx27__exchange_and_add_dispatchEPii.exit.i.i.i.i

_ZN9__gnu_cxx27__exchange_and_add_dispatchEPii.exit.i.i.i.i: ; preds = %15, %12
  %.0.i.i.i.i.i = phi i32 [ %13, %12 ], [ %16, %15 ]
  %17 = icmp eq i32 %.0.i.i.i.i.i, 1
  br i1 %17, label %18, label %"_ZZN9grpc_core12experimental28DirectoryReloaderCrlProvider19UpdateAndStartTimerEvEN3$_0D2Ev.exit"

18:                                               ; preds = %_ZN9__gnu_cxx27__exchange_and_add_dispatchEPii.exit.i.i.i.i
  %19 = load ptr, ptr %.val.pre, align 8, !tbaa !30
  %20 = getelementptr inbounds nuw i8, ptr %19, i64 24
  %21 = load ptr, ptr %20, align 8
  tail call void %21(ptr noundef nonnull align 8 dereferenceable(16) %.val.pre) #36
  br label %"_ZZN9grpc_core12experimental28DirectoryReloaderCrlProvider19UpdateAndStartTimerEvEN3$_0D2Ev.exit"

"_ZZN9grpc_core12experimental28DirectoryReloaderCrlProvider19UpdateAndStartTimerEvEN3$_0D2Ev.exit": ; preds = %.thread, %8, %_ZN9__gnu_cxx27__exchange_and_add_dispatchEPii.exit.i.i.i.i, %18
  ret void
}